; Function Attrs: nounwind uwtable
define ptr @l_LLVM_setDLLStorageClass___boxed(ptr noundef %0, ptr noundef %1, ptr noundef %2, ptr noundef %3) local_unnamed_addr #1 {
  %5 = getelementptr i8, ptr %0, i64 8
  %.val16 = load i64, ptr %5, align 8, !tbaa !13
  %6 = ptrtoint ptr %0 to i64
  %7 = and i64 %6, 1
  %.not = icmp eq i64 %7, 0
  br i1 %.not, label %8, label %lean_dec.exit11

8:                                                ; preds = %4
  %9 = load i32, ptr %0, align 4, !tbaa !4
  %10 = icmp sgt i32 %9, 1
  br i1 %10, label %11, label %13, !prof !15

11:                                               ; preds = %8
  %12 = add nsw i32 %9, -1
  store i32 %12, ptr %0, align 4, !tbaa !4
  br label %lean_dec.exit11

13:                                               ; preds = %8
  %.not.i = icmp eq i32 %9, 0
  br i1 %.not.i, label %lean_dec.exit11, label %14

14:                                               ; preds = %13
  tail call void @lean_dec_ref_cold(ptr noundef nonnull %0) #4
  br label %lean_dec.exit11

lean_dec.exit11:                                  ; preds = %14, %13, %11, %4
  %15 = getelementptr i8, ptr %1, i64 8
  %.val = load i64, ptr %15, align 8, !tbaa !13
  %16 = ptrtoint ptr %1 to i64
  %17 = and i64 %16, 1
  %.not18 = icmp eq i64 %17, 0
  br i1 %.not18, label %18, label %lean_dec.exit10

18:                                               ; preds = %lean_dec.exit11
  %19 = load i32, ptr %1, align 4, !tbaa !4
  %20 = icmp sgt i32 %19, 1
  br i1 %20, label %21, label %23, !prof !15

21:                                               ; preds = %18
  %22 = add nsw i32 %19, -1
  store i32 %22, ptr %1, align 4, !tbaa !4
  br label %lean_dec.exit10

23:                                               ; preds = %18
  %.not.i12 = icmp eq i32 %19, 0
  br i1 %.not.i12, label %lean_dec.exit10, label %24

24:                                               ; preds = %23
  tail call void @lean_dec_ref_cold(ptr noundef nonnull %1) #4
  br label %lean_dec.exit10

lean_dec.exit10:                                  ; preds = %24, %23, %21, %lean_dec.exit11
  %25 = getelementptr i8, ptr %2, i64 8
  %.val17 = load i64, ptr %25, align 8, !tbaa !13
  %26 = ptrtoint ptr %2 to i64
  %27 = and i64 %26, 1
  %.not19 = icmp eq i64 %27, 0
  br i1 %.not19, label %28, label %lean_dec.exit

28:                                               ; preds = %lean_dec.exit10
  %29 = load i32, ptr %2, align 4, !tbaa !4
  %30 = icmp sgt i32 %29, 1
  br i1 %30, label %31, label %33, !prof !15

31:                                               ; preds = %28
  %32 = add nsw i32 %29, -1
  store i32 %32, ptr %2, align 4, !tbaa !4
  br label %lean_dec.exit

33:                                               ; preds = %28
  %.not.i14 = icmp eq i32 %29, 0
  br i1 %.not.i14, label %lean_dec.exit, label %34

34:                                               ; preds = %33
  tail call void @lean_dec_ref_cold(ptr noundef nonnull %2) #4
  br label %lean_dec.exit

lean_dec.exit:                                    ; preds = %34, %33, %31, %lean_dec.exit10
  %35 = tail call ptr @lean_llvm_set_dll_storage_class(i64 noundef %.val16, i64 noundef %.val, i64 noundef %.val17, ptr noundef %3) #4
  ret ptr %35
}